; Function Attrs: mustprogress uwtable
define noundef nonnull align 8 dereferenceable(217) ptr @_ZN6icu_756Locale10getDefaultEv() local_unnamed_addr #1 align 2 personality ptr @__gxx_personality_v0 {
entry:
  %status = alloca i32, align 4
  tail call void @umtx_lock_75(ptr noundef nonnull @_ZN6icu_75L19gDefaultLocaleMutexE)
  %0 = load ptr, ptr @_ZN6icu_75L14gDefaultLocaleE, align 8
  invoke void @umtx_unlock_75(ptr noundef nonnull @_ZN6icu_75L19gDefaultLocaleMutexE)
          to label %_ZN6icu_755MutexD2Ev.exit unwind label %terminate.lpad.i

terminate.lpad.i:                                 ; preds = %entry
  %1 = landingpad { ptr, i32 }
          catch ptr null
  %2 = extractvalue { ptr, i32 } %1, 0
  tail call void @__clang_call_terminate(ptr %2) #22
  unreachable

_ZN6icu_755MutexD2Ev.exit:                        ; preds = %entry
  %cmp.not.not = icmp eq ptr %0, null
  br i1 %cmp.not.not, label %cleanup.cont, label %return

cleanup.cont:                                     ; preds = %_ZN6icu_755MutexD2Ev.exit
  store i32 0, ptr %status, align 4
  %call = call noundef ptr @_ZN6icu_7527locale_set_default_internalEPKcR10UErrorCode(ptr noundef null, ptr noundef nonnull align 4 dereferenceable(4) %status)
  br label %return

return:                                           ; preds = %_ZN6icu_755MutexD2Ev.exit, %cleanup.cont
  %retval.1 = phi ptr [ %0, %_ZN6icu_755MutexD2Ev.exit ], [ %call, %cleanup.cont ]
  ret ptr %retval.1
}